; ModuleID = '20/745.c'
source_filename = "20/745.c"
target datalayout = "e-m:e-p270:32:32-p271:32:32-p272:64:64-i64:64-f80:128-n8:16:32:64-S128"
target triple = "x86_64-pc-linux-gnu"

@.str = private unnamed_addr constant [5 x i8] c"%s%s\00", align 1
@.str.1 = private unnamed_addr constant [4 x i8] c"%s\0A\00", align 1

; Function Attrs: noinline nounwind uwtable
define dso_local void @main() #0 {
  %1 = alloca i32, align 4
  %2 = alloca i32, align 4
  %3 = alloca i32, align 4
  %4 = alloca [100 x i32], align 16
  %5 = alloca [100 x i32], align 16
  %6 = alloca [100 x [13 x i8]], align 16
  %7 = alloca [100 x [13 x i8]], align 16
  store i32 0, i32* %2, align 4
  %8 = bitcast [100 x i32]* %5 to i8*
  call void @llvm.memset.p0i8.i64(i8* align 16 %8, i8 0, i64 400, i1 false)
  br label %9

9:                                                ; preds = %20, %0
  %10 = load i32, i32* %2, align 4
  %11 = sext i32 %10 to i64
  %12 = getelementptr inbounds [100 x [13 x i8]], [100 x [13 x i8]]* %7, i64 0, i64 %11
  %13 = getelementptr inbounds [13 x i8], [13 x i8]* %12, i64 0, i64 0
  %14 = load i32, i32* %2, align 4
  %15 = sext i32 %14 to i64
  %16 = getelementptr inbounds [100 x [13 x i8]], [100 x [13 x i8]]* %6, i64 0, i64 %15
  %17 = getelementptr inbounds [13 x i8], [13 x i8]* %16, i64 0, i64 0
  %18 = call i32 (i8*, ...) @__isoc99_scanf(i8* getelementptr inbounds ([5 x i8], [5 x i8]* @.str, i64 0, i64 0), i8* %13, i8* %17)
  %19 = icmp ne i32 %18, -1
  br i1 %19, label %20, label %23

20:                                               ; preds = %9
  %21 = load i32, i32* %2, align 4
  %22 = add nsw i32 %21, 1
  store i32 %22, i32* %2, align 4
  br label %9

23:                                               ; preds = %9
  %24 = load i32, i32* %2, align 4
  store i32 %24, i32* %1, align 4
  store i32 0, i32* %2, align 4
  br label %25

25:                                               ; preds = %158, %23
  %26 = load i32, i32* %2, align 4
  %27 = load i32, i32* %1, align 4
  %28 = icmp slt i32 %26, %27
  br i1 %28, label %29, label %161

29:                                               ; preds = %25
  %30 = load i32, i32* %2, align 4
  %31 = sext i32 %30 to i64
  %32 = getelementptr inbounds [100 x [13 x i8]], [100 x [13 x i8]]* %7, i64 0, i64 %31
  %33 = getelementptr inbounds [13 x i8], [13 x i8]* %32, i64 0, i64 0
  %34 = call i64 @strlen(i8* %33) #4
  %35 = trunc i64 %34 to i32
  %36 = load i32, i32* %2, align 4
  %37 = sext i32 %36 to i64
  %38 = getelementptr inbounds [100 x i32], [100 x i32]* %4, i64 0, i64 %37
  store i32 %35, i32* %38, align 4
  store i32 1, i32* %3, align 4
  br label %39

39:                                               ; preds = %73, %29
  %40 = load i32, i32* %3, align 4
  %41 = load i32, i32* %2, align 4
  %42 = sext i32 %41 to i64
  %43 = getelementptr inbounds [100 x i32], [100 x i32]* %4, i64 0, i64 %42
  %44 = load i32, i32* %43, align 4
  %45 = icmp slt i32 %40, %44
  br i1 %45, label %46, label %76

46:                                               ; preds = %39
  %47 = load i32, i32* %2, align 4
  %48 = sext i32 %47 to i64
  %49 = getelementptr inbounds [100 x [13 x i8]], [100 x [13 x i8]]* %7, i64 0, i64 %48
  %50 = load i32, i32* %3, align 4
  %51 = sext i32 %50 to i64
  %52 = getelementptr inbounds [13 x i8], [13 x i8]* %49, i64 0, i64 %51
  %53 = load i8, i8* %52, align 1
  %54 = sext i8 %53 to i32
  %55 = load i32, i32* %2, align 4
  %56 = sext i32 %55 to i64
  %57 = getelementptr inbounds [100 x [13 x i8]], [100 x [13 x i8]]* %7, i64 0, i64 %56
  %58 = load i32, i32* %2, align 4
  %59 = sext i32 %58 to i64
  %60 = getelementptr inbounds [100 x i32], [100 x i32]* %5, i64 0, i64 %59
  %61 = load i32, i32* %60, align 4
  %62 = sext i32 %61 to i64
  %63 = getelementptr inbounds [13 x i8], [13 x i8]* %57, i64 0, i64 %62
  %64 = load i8, i8* %63, align 1
  %65 = sext i8 %64 to i32
  %66 = icmp sgt i32 %54, %65
  br i1 %66, label %67, label %72

67:                                               ; preds = %46
  %68 = load i32, i32* %3, align 4
  %69 = load i32, i32* %2, align 4
  %70 = sext i32 %69 to i64
  %71 = getelementptr inbounds [100 x i32], [100 x i32]* %5, i64 0, i64 %70
  store i32 %68, i32* %71, align 4
  br label %72

72:                                               ; preds = %67, %46
  br label %73

73:                                               ; preds = %72
  %74 = load i32, i32* %3, align 4
  %75 = add nsw i32 %74, 1
  store i32 %75, i32* %3, align 4
  br label %39

76:                                               ; preds = %39
  %77 = load i32, i32* %2, align 4
  %78 = sext i32 %77 to i64
  %79 = getelementptr inbounds [100 x i32], [100 x i32]* %4, i64 0, i64 %78
  %80 = load i32, i32* %79, align 4
  %81 = sub nsw i32 %80, 1
  store i32 %81, i32* %3, align 4
  br label %82

82:                                               ; preds = %104, %76
  %83 = load i32, i32* %3, align 4
  %84 = load i32, i32* %2, align 4
  %85 = sext i32 %84 to i64
  %86 = getelementptr inbounds [100 x i32], [100 x i32]* %5, i64 0, i64 %85
  %87 = load i32, i32* %86, align 4
  %88 = icmp sgt i32 %83, %87
  br i1 %88, label %89, label %107

89:                                               ; preds = %82
  %90 = load i32, i32* %2, align 4
  %91 = sext i32 %90 to i64
  %92 = getelementptr inbounds [100 x [13 x i8]], [100 x [13 x i8]]* %7, i64 0, i64 %91
  %93 = load i32, i32* %3, align 4
  %94 = sext i32 %93 to i64
  %95 = getelementptr inbounds [13 x i8], [13 x i8]* %92, i64 0, i64 %94
  %96 = load i8, i8* %95, align 1
  %97 = load i32, i32* %2, align 4
  %98 = sext i32 %97 to i64
  %99 = getelementptr inbounds [100 x [13 x i8]], [100 x [13 x i8]]* %7, i64 0, i64 %98
  %100 = load i32, i32* %3, align 4
  %101 = add nsw i32 %100, 3
  %102 = sext i32 %101 to i64
  %103 = getelementptr inbounds [13 x i8], [13 x i8]* %99, i64 0, i64 %102
  store i8 %96, i8* %103, align 1
  br label %104

104:                                              ; preds = %89
  %105 = load i32, i32* %3, align 4
  %106 = add nsw i32 %105, -1
  store i32 %106, i32* %3, align 4
  br label %82

107:                                              ; preds = %82
  %108 = load i32, i32* %2, align 4
  %109 = sext i32 %108 to i64
  %110 = getelementptr inbounds [100 x [13 x i8]], [100 x [13 x i8]]* %6, i64 0, i64 %109
  %111 = getelementptr inbounds [13 x i8], [13 x i8]* %110, i64 0, i64 0
  %112 = load i8, i8* %111, align 1
  %113 = load i32, i32* %2, align 4
  %114 = sext i32 %113 to i64
  %115 = getelementptr inbounds [100 x [13 x i8]], [100 x [13 x i8]]* %7, i64 0, i64 %114
  %116 = load i32, i32* %2, align 4
  %117 = sext i32 %116 to i64
  %118 = getelementptr inbounds [100 x i32], [100 x i32]* %5, i64 0, i64 %117
  %119 = load i32, i32* %118, align 4
  %120 = add nsw i32 %119, 1
  %121 = sext i32 %120 to i64
  %122 = getelementptr inbounds [13 x i8], [13 x i8]* %115, i64 0, i64 %121
  store i8 %112, i8* %122, align 1
  %123 = load i32, i32* %2, align 4
  %124 = sext i32 %123 to i64
  %125 = getelementptr inbounds [100 x [13 x i8]], [100 x [13 x i8]]* %6, i64 0, i64 %124
  %126 = getelementptr inbounds [13 x i8], [13 x i8]* %125, i64 0, i64 1
  %127 = load i8, i8* %126, align 1
  %128 = load i32, i32* %2, align 4
  %129 = sext i32 %128 to i64
  %130 = getelementptr inbounds [100 x [13 x i8]], [100 x [13 x i8]]* %7, i64 0, i64 %129
  %131 = load i32, i32* %2, align 4
  %132 = sext i32 %131 to i64
  %133 = getelementptr inbounds [100 x i32], [100 x i32]* %5, i64 0, i64 %132
  %134 = load i32, i32* %133, align 4
  %135 = add nsw i32 %134, 2
  %136 = sext i32 %135 to i64
  %137 = getelementptr inbounds [13 x i8], [13 x i8]* %130, i64 0, i64 %136
  store i8 %127, i8* %137, align 1
  %138 = load i32, i32* %2, align 4
  %139 = sext i32 %138 to i64
  %140 = getelementptr inbounds [100 x [13 x i8]], [100 x [13 x i8]]* %6, i64 0, i64 %139
  %141 = getelementptr inbounds [13 x i8], [13 x i8]* %140, i64 0, i64 2
  %142 = load i8, i8* %141, align 1
  %143 = load i32, i32* %2, align 4
  %144 = sext i32 %143 to i64
  %145 = getelementptr inbounds [100 x [13 x i8]], [100 x [13 x i8]]* %7, i64 0, i64 %144
  %146 = load i32, i32* %2, align 4
  %147 = sext i32 %146 to i64
  %148 = getelementptr inbounds [100 x i32], [100 x i32]* %5, i64 0, i64 %147
  %149 = load i32, i32* %148, align 4
  %150 = add nsw i32 %149, 3
  %151 = sext i32 %150 to i64
  %152 = getelementptr inbounds [13 x i8], [13 x i8]* %145, i64 0, i64 %151
  store i8 %142, i8* %152, align 1
  %153 = load i32, i32* %2, align 4
  %154 = sext i32 %153 to i64
  %155 = getelementptr inbounds [100 x [13 x i8]], [100 x [13 x i8]]* %7, i64 0, i64 %154
  %156 = getelementptr inbounds [13 x i8], [13 x i8]* %155, i64 0, i64 0
  %157 = call i32 (i8*, ...) @printf(i8* getelementptr inbounds ([4 x i8], [4 x i8]* @.str.1, i64 0, i64 0), i8* %156)
  br label %158

158:                                              ; preds = %107
  %159 = load i32, i32* %2, align 4
  %160 = add nsw i32 %159, 1
  store i32 %160, i32* %2, align 4
  br label %25

161:                                              ; preds = %25
  ret void
}

; Function Attrs: argmemonly nounwind willreturn
declare void @llvm.memset.p0i8.i64(i8* nocapture writeonly, i8, i64, i1 immarg) #1

declare dso_local i32 @__isoc99_scanf(i8*, ...) #2

; Function Attrs: nounwind readonly
declare dso_local i64 @strlen(i8*) #3

declare dso_local i32 @printf(i8*, ...) #2


!llvm.module.flags = !{!0}
!llvm.ident = !{!1}

!0 = !{i32 1, !"wchar_size", i32 4}
!1 = !{!"clang version 10.0.0-4ubuntu1 "}
